target datalayout = "e-m:e-p270:32:32-p271:32:32-p272:64:64-i64:64-i128:128-f80:128-n8:16:32:64-S128"
target triple = "x86_64-pc-linux-gnu"

@hf_rr_msg_type = internal global i32 0, align 4
@ett_msg_rr = internal global [43 x i32] zeroinitializer, align 16

; Function Attrs: null_pointer_is_valid sspstrong uwtable
define hidden void @gmr1_get_msg_rr_params(i8 noundef zeroext %0, i32 noundef %1, ptr noundef %2, ptr noundef %3, ptr noundef %4, ptr noundef %5) #1 {
  %7 = alloca i8, align 1
  %8 = alloca i32, align 4
  %9 = alloca ptr, align 8
  %10 = alloca ptr, align 8
  %11 = alloca ptr, align 8
  %12 = alloca ptr, align 8
  %13 = alloca ptr, align 8
  %14 = alloca i32, align 4
  store i8 %0, ptr %7, align 1
  store i32 %1, ptr %8, align 4
  store ptr %2, ptr %9, align 8
  store ptr %3, ptr %10, align 8
  store ptr %4, ptr %11, align 8
  store ptr %5, ptr %12, align 8
  call void @llvm.lifetime.start.p0(i64 8, ptr %13) #5
  store ptr null, ptr %13, align 8
  call void @llvm.lifetime.start.p0(i64 4, ptr %14) #5
  %15 = load i32, ptr %8, align 4
  %16 = icmp ne i32 %15, 0
  br i1 %16, label %17, label %22

17:                                               ; preds = %6
  %18 = load i8, ptr %7, align 1
  %19 = zext i8 %18 to i32
  %20 = or i32 %19, 256
  %21 = call ptr @try_val_to_str_idx(i32 noundef %20, ptr noundef @gmr1_msg_rr_strings, ptr noundef %14)
  store ptr %21, ptr %13, align 8
  br label %22

22:                                               ; preds = %17, %6
  %23 = load ptr, ptr %13, align 8
  %24 = icmp ne ptr %23, null
  br i1 %24, label %29, label %25

25:                                               ; preds = %22
  %26 = load i8, ptr %7, align 1
  %27 = zext i8 %26 to i32
  %28 = call ptr @try_val_to_str_idx(i32 noundef %27, ptr noundef @gmr1_msg_rr_strings, ptr noundef %14)
  store ptr %28, ptr %13, align 8
  br label %29

29:                                               ; preds = %25, %22
  %30 = load ptr, ptr %13, align 8
  %31 = load ptr, ptr %9, align 8
  store ptr %30, ptr %31, align 8
  %32 = load i32, ptr @hf_rr_msg_type, align 4
  %33 = load ptr, ptr %11, align 8
  store i32 %32, ptr %33, align 4
  %34 = load ptr, ptr %13, align 8
  %35 = icmp ne ptr %34, null
  br i1 %35, label %36, label %47

36:                                               ; preds = %29
  %37 = load i32, ptr %14, align 4
  %38 = sext i32 %37 to i64
  %39 = getelementptr [43 x i32], ptr @ett_msg_rr, i64 0, i64 %38
  %40 = load i32, ptr %39, align 4
  %41 = load ptr, ptr %10, align 8
  store i32 %40, ptr %41, align 4
  %42 = load i32, ptr %14, align 4
  %43 = sext i32 %42 to i64
  %44 = getelementptr [43 x ptr], ptr @gmr1_msg_rr_func, i64 0, i64 %43
  %45 = load ptr, ptr %44, align 8
  %46 = load ptr, ptr %12, align 8
  store ptr %45, ptr %46, align 8
  br label %50

47:                                               ; preds = %29
  %48 = load ptr, ptr %10, align 8
  store i32 -1, ptr %48, align 4
  %49 = load ptr, ptr %12, align 8
  store ptr null, ptr %49, align 8
  br label %50

50:                                               ; preds = %47, %36
  call void @llvm.lifetime.end.p0(i64 4, ptr %14) #5
  call void @llvm.lifetime.end.p0(i64 8, ptr %13) #5
  ret void
}