; Function Attrs: null_pointer_is_valid sspstrong uwtable
define hidden void @gmr1_get_msg_rr_params(i8 noundef zeroext %0, i32 noundef %1, ptr noundef writeonly captures(none) initializes((0, 8)) %2, ptr noundef writeonly captures(none) initializes((0, 4)) %3, ptr noundef writeonly captures(none) initializes((0, 4)) %4, ptr noundef writeonly captures(none) initializes((0, 8)) %5) local_unnamed_addr #1 {
  %7 = alloca i32, align 4
  call void @llvm.lifetime.start.p0(i64 4, ptr nonnull %7) #8
  %.not = icmp eq i32 %1, 0
  %.pre = zext i8 %0 to i32
  br i1 %.not, label %.thread, label %8

8:                                                ; preds = %6
  %9 = or disjoint i32 %.pre, 256
  %10 = call ptr @try_val_to_str_idx(i32 noundef %9, ptr noundef nonnull @gmr1_msg_rr_strings, ptr noundef nonnull %7)
  %.not11 = icmp eq ptr %10, null
  br i1 %.not11, label %.thread, label %.thread15

.thread15:                                        ; preds = %8
  store ptr %10, ptr %2, align 8
  %11 = load i32, ptr @hf_rr_msg_type, align 4
  store i32 %11, ptr %4, align 4
  br label %14

.thread:                                          ; preds = %6, %8
  %12 = call ptr @try_val_to_str_idx(i32 noundef %.pre, ptr noundef nonnull @gmr1_msg_rr_strings, ptr noundef nonnull %7)
  store ptr %12, ptr %2, align 8
  %13 = load i32, ptr @hf_rr_msg_type, align 4
  store i32 %13, ptr %4, align 4
  %.not12 = icmp eq ptr %12, null
  br i1 %.not12, label %21, label %14

14:                                               ; preds = %.thread15, %.thread
  %15 = load i32, ptr %7, align 4
  %16 = sext i32 %15 to i64
  %17 = getelementptr [43 x i32], ptr @ett_msg_rr, i64 0, i64 %16
  %18 = load i32, ptr %17, align 4
  store i32 %18, ptr %3, align 4
  %19 = getelementptr [43 x ptr], ptr @gmr1_msg_rr_func, i64 0, i64 %16
  %20 = load ptr, ptr %19, align 8
  br label %22

21:                                               ; preds = %.thread
  store i32 -1, ptr %3, align 4
  br label %22

22:                                               ; preds = %21, %14
  %storemerge = phi ptr [ null, %21 ], [ %20, %14 ]
  store ptr %storemerge, ptr %5, align 8
  call void @llvm.lifetime.end.p0(i64 4, ptr nonnull %7) #8
  ret void
}